target datalayout = "e-m:e-p270:32:32-p271:32:32-p272:64:64-i64:64-i128:128-f80:128-n8:16:32:64-S128"
target triple = "x86_64-pc-linux-gnu"

%"class.pxrInternal_v0_24__pxrReserved__::GfColorSpace" = type { %"class.std::shared_ptr" }
%"class.std::shared_ptr" = type { %"class.std::__shared_ptr" }
%"class.std::__shared_ptr" = type { ptr, %"class.std::__shared_count" }
%"class.std::__shared_count" = type { ptr }
%"class.pxrInternal_v0_24__pxrReserved__::GfColor" = type <{ %"class.pxrInternal_v0_24__pxrReserved__::GfColorSpace", %"class.pxrInternal_v0_24__pxrReserved__::GfVec3f", [4 x i8] }>
%"class.pxrInternal_v0_24__pxrReserved__::GfVec3f" = type { [3 x float] }

; Function Attrs: mustprogress uwtable
define void @_ZNK32pxrInternal_v0_24__pxrReserved__12GfColorSpace7ConvertERKS0_RKNS_7GfVec3fE(ptr dead_on_unwind noalias writable sret(%"class.pxrInternal_v0_24__pxrReserved__::GfColor") align 8 %0, ptr noundef nonnull align 8 dereferenceable(16) %1, ptr noundef nonnull align 8 dereferenceable(16) %2, ptr noundef nonnull align 4 dereferenceable(12) %3) #0 align 2 personality ptr @__gxx_personality_v0 {
  %5 = alloca ptr, align 8
  %6 = alloca ptr, align 8
  %7 = alloca ptr, align 8
  %8 = alloca ptr, align 8
  %9 = alloca %"class.pxrInternal_v0_24__pxrReserved__::GfColor", align 8
  %10 = alloca ptr, align 8
  %11 = alloca i32, align 4
  store ptr %0, ptr %5, align 8
  store ptr %1, ptr %6, align 8
  store ptr %2, ptr %7, align 8
  store ptr %3, ptr %8, align 8
  %12 = load ptr, ptr %6, align 8
  %13 = load ptr, ptr %8, align 8
  %14 = load ptr, ptr %7, align 8
  call void @_ZN32pxrInternal_v0_24__pxrReserved__7GfColorC1ERKNS_7GfVec3fERKNS_12GfColorSpaceE(ptr noundef nonnull align 8 dereferenceable(28) %9, ptr noundef nonnull align 4 dereferenceable(12) %13, ptr noundef nonnull align 8 dereferenceable(16) %14)
  invoke void @_ZN32pxrInternal_v0_24__pxrReserved__7GfColorC1ERKS0_RKNS_12GfColorSpaceE(ptr noundef nonnull align 8 dereferenceable(28) %0, ptr noundef nonnull align 8 dereferenceable(28) %9, ptr noundef nonnull align 8 dereferenceable(16) %12)
          to label %15 unwind label %16

15:                                               ; preds = %4
  call void @_ZN32pxrInternal_v0_24__pxrReserved__7GfColorD2Ev(ptr noundef nonnull align 8 dereferenceable(28) %9) #9
  ret void

16:                                               ; preds = %4
  %17 = landingpad { ptr, i32 }
          cleanup
  %18 = extractvalue { ptr, i32 } %17, 0
  store ptr %18, ptr %10, align 8
  %19 = extractvalue { ptr, i32 } %17, 1
  store i32 %19, ptr %11, align 4
  call void @_ZN32pxrInternal_v0_24__pxrReserved__7GfColorD2Ev(ptr noundef nonnull align 8 dereferenceable(28) %9) #9
  br label %20

20:                                               ; preds = %16
  %21 = load ptr, ptr %10, align 8
  %22 = load i32, ptr %11, align 4
  %23 = insertvalue { ptr, i32 } poison, ptr %21, 0
  %24 = insertvalue { ptr, i32 } %23, i32 %22, 1
  resume { ptr, i32 } %24
}